ARM GAS  C:\Users\CHRIST~2\AppData\Local\Temp\ccmNXZdb.s 			page 1


   1              		.cpu cortex-m4
   2              		.eabi_attribute 27, 1
   3              		.eabi_attribute 28, 1
   4              		.eabi_attribute 20, 1
   5              		.eabi_attribute 21, 1
   6              		.eabi_attribute 23, 3
   7              		.eabi_attribute 24, 1
   8              		.eabi_attribute 25, 1
   9              		.eabi_attribute 26, 1
  10              		.eabi_attribute 30, 2
  11              		.eabi_attribute 34, 1
  12              		.eabi_attribute 18, 4
  13              		.file	"main.c"
  14              		.text
  15              	.Ltext0:
  16              		.cfi_sections	.debug_frame
  17              		.section	.text.chprintf.constprop.0,"ax",%progbits
  18              		.align	1
  19              		.p2align 4,,15
  20              		.syntax unified
  21              		.thumb
  22              		.thumb_func
  23              		.fpu fpv4-sp-d16
  24              		.type	chprintf.constprop.0, %function
  25              	chprintf.constprop.0:
  26              	.LFB263:
  27              		.file 1 "../../lib/e-puck2_main-processor/ChibiOS//os/hal/lib/streams/chprintf.h"
  28              		.loc 1 69 0
  29              		.cfi_startproc
  30              		@ args = 4, pretend = 12, frame = 8
  31              		@ frame_needed = 0, uses_anonymous_args = 1
  32              	.LVL0:
  33 0000 0EB4     		push	{r1, r2, r3}
  34              		.cfi_def_cfa_offset 12
  35              		.cfi_offset 1, -12
  36              		.cfi_offset 2, -8
  37              		.cfi_offset 3, -4
  38 0002 10B5     		push	{r4, lr}
  39              		.cfi_def_cfa_offset 20
  40              		.cfi_offset 4, -20
  41              		.cfi_offset 14, -16
  42 0004 0A4C     		ldr	r4, .L6
  43              		.loc 1 74 0
  44 0006 0B49     		ldr	r1, .L6+4
  45              		.loc 1 69 0
  46 0008 2368     		ldr	r3, [r4]
  47              		.loc 1 74 0
  48 000a 0B48     		ldr	r0, .L6+8
  49              	.LVL1:
  50              		.loc 1 69 0
  51 000c 83B0     		sub	sp, sp, #12
  52              		.cfi_def_cfa_offset 32
  53              		.loc 1 69 0
  54 000e 0193     		str	r3, [sp, #4]
  55              	.LVL2:
  56              		.loc 1 73 0
  57 0010 06AB     		add	r3, sp, #24
ARM GAS  C:\Users\CHRIST~2\AppData\Local\Temp\ccmNXZdb.s 			page 2


  58              		.loc 1 74 0
  59 0012 1A46     		mov	r2, r3
  60              		.loc 1 73 0
  61 0014 0093     		str	r3, [sp]
  62              		.loc 1 74 0
  63 0016 FFF7FEFF 		bl	chvprintf
  64              	.LVL3:
  65              		.loc 1 78 0
  66 001a 019A     		ldr	r2, [sp, #4]
  67 001c 2368     		ldr	r3, [r4]
  68 001e 9A42     		cmp	r2, r3
  69 0020 04D1     		bne	.L5
  70 0022 03B0     		add	sp, sp, #12
  71              		.cfi_remember_state
  72              		.cfi_def_cfa_offset 20
  73              		@ sp needed
  74 0024 BDE81040 		pop	{r4, lr}
  75              		.cfi_restore 14
  76              		.cfi_restore 4
  77              		.cfi_def_cfa_offset 12
  78 0028 03B0     		add	sp, sp, #12
  79              		.cfi_restore 3
  80              		.cfi_restore 2
  81              		.cfi_restore 1
  82              		.cfi_def_cfa_offset 0
  83 002a 7047     		bx	lr
  84              	.L5:
  85              		.cfi_restore_state
  86 002c FFF7FEFF 		bl	__stack_chk_fail
  87              	.LVL4:
  88              	.L7:
  89              		.align	2
  90              	.L6:
  91 0030 00000000 		.word	__stack_chk_guard
  92 0034 00000000 		.word	.LC0
  93 0038 00000000 		.word	SD3
  94              		.cfi_endproc
  95              	.LFE263:
  96              		.size	chprintf.constprop.0, .-chprintf.constprop.0
  97              		.global	__aeabi_f2d
  98              		.section	.text.startup.main,"ax",%progbits
  99              		.align	1
 100              		.p2align 4,,15
 101              		.global	main
 102              		.syntax unified
 103              		.thumb
 104              		.thumb_func
 105              		.fpu fpv4-sp-d16
 106              		.type	main, %function
 107              	main:
 108              	.LFB261:
 109              		.file 2 "main.c"
 110              		.loc 2 60 0
 111              		.cfi_startproc
 112              		@ args = 0, pretend = 0, frame = 88
 113              		@ frame_needed = 0, uses_anonymous_args = 0
 114 0000 2DE9F041 		push	{r4, r5, r6, r7, r8, lr}
ARM GAS  C:\Users\CHRIST~2\AppData\Local\Temp\ccmNXZdb.s 			page 3


 115              		.cfi_def_cfa_offset 24
 116              		.cfi_offset 4, -24
 117              		.cfi_offset 5, -20
 118              		.cfi_offset 6, -16
 119              		.cfi_offset 7, -12
 120              		.cfi_offset 8, -8
 121              		.cfi_offset 14, -4
 122 0004 234B     		ldr	r3, .L12
 123              		.loc 2 109 0
 124 0006 244F     		ldr	r7, .L12+4
 125              		.loc 2 60 0
 126 0008 1B68     		ldr	r3, [r3]
 127              		.loc 2 109 0
 128 000a DFF8A480 		ldr	r8, .L12+28
 129              		.loc 2 60 0
 130 000e 98B0     		sub	sp, sp, #96
 131              		.cfi_def_cfa_offset 120
 132              		.loc 2 60 0
 133 0010 1793     		str	r3, [sp, #92]
 134              		.loc 2 62 0
 135 0012 FFF7FEFF 		bl	halInit
 136              	.LVL5:
 137              		.loc 2 63 0
 138 0016 FFF7FEFF 		bl	chSysInit
 139              	.LVL6:
 140              		.loc 2 64 0
 141 001a FFF7FEFF 		bl	mpu_init
 142              	.LVL7:
 143              		.loc 2 67 0
 144 001e 1F4A     		ldr	r2, .L12+8
 145 0020 1F49     		ldr	r1, .L12+12
 146 0022 2048     		ldr	r0, .L12+16
 147 0024 FFF7FEFF 		bl	messagebus_init
 148              	.LVL8:
 149              	.LBB4:
 150              	.LBB5:
 151              		.loc 2 38 0
 152 0028 1F49     		ldr	r1, .L12+20
 153 002a 3846     		mov	r0, r7
 154 002c FFF7FEFF 		bl	sdStart
 155              	.LVL9:
 156              	.LBE5:
 157              	.LBE4:
 158              		.loc 2 72 0
 159 0030 FFF7FEFF 		bl	usb_start
 160              	.LVL10:
 161              		.loc 2 76 0
 162 0034 FFF7FEFF 		bl	motors_init
 163              	.LVL11:
 164              		.loc 2 78 0
 165 0038 FFF7FEFF 		bl	proximity_start
 166              	.LVL12:
 167              		.loc 2 82 0
 168 003c FFF7FEFF 		bl	imu_start
 169              	.LVL13:
 170              		.loc 2 83 0
 171 0040 1A49     		ldr	r1, .L12+24
ARM GAS  C:\Users\CHRIST~2\AppData\Local\Temp\ccmNXZdb.s 			page 4


 172 0042 1848     		ldr	r0, .L12+16
 173 0044 FFF7FEFF 		bl	messagebus_find_topic_blocking
 174              	.LVL14:
 175              		.loc 2 84 0
 176 0048 6421     		movs	r1, #100
 177              		.loc 2 83 0
 178 004a 0646     		mov	r6, r0
 179              	.LVL15:
 180              		.loc 2 84 0
 181 004c FFF7FEFF 		bl	imu_compute_offset
 182              	.LVL16:
 183              		.loc 2 87 0
 184 0050 FFF7FEFF 		bl	calibrate_ir
 185              	.LVL17:
 186              		.loc 2 93 0
 187 0054 0A20     		movs	r0, #10
 188 0056 FFF7FEFF 		bl	right_motor_set_speed
 189              	.LVL18:
 190              		.loc 2 94 0
 191 005a 0A20     		movs	r0, #10
 192 005c FFF7FEFF 		bl	left_motor_set_speed
 193              	.LVL19:
 194              	.L9:
 195              		.loc 2 107 0 discriminator 1
 196 0060 5022     		movs	r2, #80
 197 0062 03A9     		add	r1, sp, #12
 198 0064 3046     		mov	r0, r6
 199 0066 FFF7FEFF 		bl	messagebus_topic_wait
 200              	.LVL20:
 201              		.loc 2 109 0 discriminator 1
 202 006a 0398     		ldr	r0, [sp, #12]	@ float
 203 006c FFF7FEFF 		bl	__aeabi_f2d
 204              	.LVL21:
 205 0070 0446     		mov	r4, r0
 206 0072 0598     		ldr	r0, [sp, #20]	@ float
 207 0074 0D46     		mov	r5, r1
 208 0076 FFF7FEFF 		bl	__aeabi_f2d
 209              	.LVL22:
 210 007a 2246     		mov	r2, r4
 211 007c CDE90001 		strd	r0, [sp]
 212 0080 2B46     		mov	r3, r5
 213 0082 4146     		mov	r1, r8
 214 0084 3846     		mov	r0, r7
 215 0086 FFF7FEFF 		bl	chprintf.constprop.0
 216              	.LVL23:
 217              		.loc 2 111 0 discriminator 1
 218 008a 4FF4C870 		mov	r0, #400
 219 008e FFF7FEFF 		bl	chThdSleep
 220              	.LVL24:
 221 0092 E5E7     		b	.L9
 222              	.L13:
 223              		.align	2
 224              	.L12:
 225 0094 00000000 		.word	__stack_chk_guard
 226 0098 00000000 		.word	SD3
 227 009c 00000000 		.word	.LANCHOR0
 228 00a0 00000000 		.word	.LANCHOR1
ARM GAS  C:\Users\CHRIST~2\AppData\Local\Temp\ccmNXZdb.s 			page 5


 229 00a4 00000000 		.word	.LANCHOR2
 230 00a8 00000000 		.word	.LANCHOR3
 231 00ac 00000000 		.word	.LC1
 232 00b0 00000000 		.word	.LC0
 233              		.cfi_endproc
 234              	.LFE261:
 235              		.size	main, .-main
 236              		.section	.text.__stack_chk_fail,"ax",%progbits
 237              		.align	1
 238              		.p2align 4,,15
 239              		.global	__stack_chk_fail
 240              		.syntax unified
 241              		.thumb
 242              		.thumb_func
 243              		.fpu fpv4-sp-d16
 244              		.type	__stack_chk_fail, %function
 245              	__stack_chk_fail:
 246              	.LFB262:
 247              		.loc 2 120 0
 248              		.cfi_startproc
 249              		@ args = 0, pretend = 0, frame = 8
 250              		@ frame_needed = 0, uses_anonymous_args = 0
 251 0000 00B5     		push	{lr}
 252              		.cfi_def_cfa_offset 4
 253              		.cfi_offset 14, -4
 254 0002 084B     		ldr	r3, .L19
 255 0004 83B0     		sub	sp, sp, #12
 256              		.cfi_def_cfa_offset 16
 257              		.loc 2 120 0
 258 0006 1A68     		ldr	r2, [r3]
 259 0008 0192     		str	r2, [sp, #4]
 260              		.loc 2 121 0
 261 000a 019A     		ldr	r2, [sp, #4]
 262 000c 1B68     		ldr	r3, [r3]
 263 000e 9A42     		cmp	r2, r3
 264 0010 05D1     		bne	.L18
 265 0012 0548     		ldr	r0, .L19+4
 266              		.loc 2 122 0
 267 0014 03B0     		add	sp, sp, #12
 268              		.cfi_remember_state
 269              		.cfi_def_cfa_offset 4
 270              		@ sp needed
 271 0016 5DF804EB 		ldr	lr, [sp], #4
 272              		.cfi_restore 14
 273              		.cfi_def_cfa_offset 0
 274              		.loc 2 121 0
 275 001a FFF7FEBF 		b	chSysHalt
 276              	.LVL25:
 277              	.L18:
 278              		.cfi_restore_state
 279 001e FFF7FEFF 		bl	__stack_chk_fail
 280              	.LVL26:
 281              	.L20:
 282 0022 00BF     		.align	2
 283              	.L19:
 284 0024 00000000 		.word	__stack_chk_guard
 285 0028 00000000 		.word	.LC2
ARM GAS  C:\Users\CHRIST~2\AppData\Local\Temp\ccmNXZdb.s 			page 6


 286              		.cfi_endproc
 287              	.LFE262:
 288              		.size	__stack_chk_fail, .-__stack_chk_fail
 289              		.global	__stack_chk_guard
 290              		.global	bus_condvar
 291              		.global	bus_lock
 292              		.global	bus
 293              		.section	.bss.bus,"aw",%nobits
 294              		.align	2
 295              		.set	.LANCHOR2,. + 0
 296              		.type	bus, %object
 297              		.size	bus, 12
 298              	bus:
 299 0000 00000000 		.space	12
 299      00000000 
 299      00000000 
 300              		.section	.data.__stack_chk_guard,"aw",%progbits
 301              		.align	2
 302              		.type	__stack_chk_guard, %object
 303              		.size	__stack_chk_guard, 4
 304              	__stack_chk_guard:
 305 0000 96E3DEE2 		.word	-488709226
 306              		.section	.data.bus_condvar,"aw",%progbits
 307              		.align	2
 308              		.set	.LANCHOR0,. + 0
 309              		.type	bus_condvar, %object
 310              		.size	bus_condvar, 8
 311              	bus_condvar:
 312 0000 00000000 		.word	bus_condvar
 313 0004 00000000 		.word	bus_condvar
 314              		.section	.data.bus_lock,"aw",%progbits
 315              		.align	2
 316              		.set	.LANCHOR1,. + 0
 317              		.type	bus_lock, %object
 318              		.size	bus_lock, 20
 319              	bus_lock:
 320 0000 00000000 		.word	bus_lock
 321 0004 00000000 		.word	bus_lock
 322 0008 00000000 		.word	0
 323 000c 00000000 		.word	0
 324 0010 00000000 		.word	0
 325              		.section	.data.ser_cfg.12862,"aw",%progbits
 326              		.align	2
 327              		.set	.LANCHOR3,. + 0
 328              		.type	ser_cfg.12862, %object
 329              		.size	ser_cfg.12862, 12
 330              	ser_cfg.12862:
 331 0000 00C20100 		.word	115200
 332 0004 0000     		.short	0
 333 0006 0000     		.short	0
 334 0008 0000     		.short	0
 335 000a 0000     		.space	2
 336              		.section	.rodata.__stack_chk_fail.str1.4,"aMS",%progbits,1
 337              		.align	2
 338              	.LC2:
 339 0000 53746163 		.ascii	"Stack smashing detected\000"
 339      6B20736D 
ARM GAS  C:\Users\CHRIST~2\AppData\Local\Temp\ccmNXZdb.s 			page 7


 339      61736869 
 339      6E672064 
 339      65746563 
 340              		.section	.rodata.chprintf.constprop.0.str1.4,"aMS",%progbits,1
 341              		.align	2
 342              	.LC0:
 343 0000 2541783D 		.ascii	"%Ax=%-7d Az=%-7d \015\012\000"
 343      252D3764 
 343      20417A3D 
 343      252D3764 
 343      200D0A00 
 344              		.section	.rodata.main.str1.4,"aMS",%progbits,1
 345              		.align	2
 346              	.LC1:
 347 0000 2F696D75 		.ascii	"/imu\000"
 347      00
 348              		.text
 349              	.Letext0:
 350              		.file 3 "c:\\program files\\eclipse_e-puck2\\tools\\gcc-arm-none-eabi-7-2017-q4-major-win32\\arm-n
 351              		.file 4 "c:\\program files\\eclipse_e-puck2\\tools\\gcc-arm-none-eabi-7-2017-q4-major-win32\\lib\\
 352              		.file 5 "c:\\program files\\eclipse_e-puck2\\tools\\gcc-arm-none-eabi-7-2017-q4-major-win32\\lib\\
 353              		.file 6 "c:\\program files\\eclipse_e-puck2\\tools\\gcc-arm-none-eabi-7-2017-q4-major-win32\\arm-n
 354              		.file 7 "c:\\program files\\eclipse_e-puck2\\tools\\gcc-arm-none-eabi-7-2017-q4-major-win32\\arm-n
 355              		.file 8 "c:\\program files\\eclipse_e-puck2\\tools\\gcc-arm-none-eabi-7-2017-q4-major-win32\\arm-n
 356              		.file 9 "c:\\program files\\eclipse_e-puck2\\tools\\gcc-arm-none-eabi-7-2017-q4-major-win32\\arm-n
 357              		.file 10 "<built-in>"
 358              		.file 11 "c:\\program files\\eclipse_e-puck2\\tools\\gcc-arm-none-eabi-7-2017-q4-major-win32\\arm-
 359              		.file 12 "c:\\program files\\eclipse_e-puck2\\tools\\gcc-arm-none-eabi-7-2017-q4-major-win32\\arm-
 360              		.file 13 "c:\\program files\\eclipse_e-puck2\\tools\\gcc-arm-none-eabi-7-2017-q4-major-win32\\arm-
 361              		.file 14 "../../lib/e-puck2_main-processor/ChibiOS//os/rt/ports/ARMCMx/compilers/GCC/chtypes.h"
 362              		.file 15 "../../lib/e-puck2_main-processor/ChibiOS//os/rt/include/chsystypes.h"
 363              		.file 16 "../../lib/e-puck2_main-processor/ChibiOS//os/rt/include/chschd.h"
 364              		.file 17 "../../lib/e-puck2_main-processor/ChibiOS//os/ext/CMSIS/include/core_cm4.h"
 365              		.file 18 "../../lib/e-puck2_main-processor/ChibiOS//os/ext/CMSIS/ST/system_stm32f4xx.h"
 366              		.file 19 "../../lib/e-puck2_main-processor/ChibiOS//os/ext/CMSIS/ST/stm32f407xx.h"
 367              		.file 20 "../../lib/e-puck2_main-processor/ChibiOS//os/rt/ports/ARMCMx/chcore.h"
 368              		.file 21 "../../lib/e-puck2_main-processor/ChibiOS//os/rt/ports/ARMCMx/chcore_v7m.h"
 369              		.file 22 "../../lib/e-puck2_main-processor/ChibiOS//os/rt/include/chdebug.h"
 370              		.file 23 "../../lib/e-puck2_main-processor/ChibiOS//os/rt/include/chtm.h"
 371              		.file 24 "../../lib/e-puck2_main-processor/ChibiOS//os/rt/include/chstats.h"
 372              		.file 25 "../../lib/e-puck2_main-processor/ChibiOS//os/rt/include/chsem.h"
 373              		.file 26 "../../lib/e-puck2_main-processor/ChibiOS//os/rt/include/chmtx.h"
 374              		.file 27 "../../lib/e-puck2_main-processor/ChibiOS//os/rt/include/chregistry.h"
 375              		.file 28 "../../lib/e-puck2_main-processor/ChibiOS//os/rt/include/chcond.h"
 376              		.file 29 "../../lib/e-puck2_main-processor/ChibiOS//os/rt/include/chevents.h"
 377              		.file 30 "../../lib/e-puck2_main-processor/ChibiOS//os/rt/include/chqueues.h"
 378              		.file 31 "../../lib/e-puck2_main-processor/ChibiOS//os/rt/include/chstreams.h"
 379              		.file 32 "../../lib/e-puck2_main-processor/ChibiOS//os/hal/ports/STM32/STM32F4xx/stm32_dma.h"
 380              		.file 33 "../../lib/e-puck2_main-processor/ChibiOS//os/hal/include/hal_ioblock.h"
 381              		.file 34 "../../lib/e-puck2_main-processor/ChibiOS//os/hal/ports/STM32/LLD/GPIOv2/pal_lld.h"
 382              		.file 35 "../../lib/e-puck2_main-processor/ChibiOS//os/hal/include/adc.h"
 383              		.file 36 "../../lib/e-puck2_main-processor/ChibiOS//os/hal/ports/STM32/STM32F4xx/adc_lld.h"
 384              		.file 37 "../../lib/e-puck2_main-processor/ChibiOS//os/hal/include/can.h"
 385              		.file 38 "../../lib/e-puck2_main-processor/ChibiOS//os/hal/ports/STM32/LLD/can_lld.h"
 386              		.file 39 "../../lib/e-puck2_main-processor/ChibiOS//os/hal/include/dac.h"
 387              		.file 40 "../../lib/e-puck2_main-processor/ChibiOS//os/hal/ports/STM32/LLD/DACv1/dac_lld.h"
 388              		.file 41 "../../lib/e-puck2_main-processor/ChibiOS//os/hal/include/ext.h"
ARM GAS  C:\Users\CHRIST~2\AppData\Local\Temp\ccmNXZdb.s 			page 8


 389              		.file 42 "../../lib/e-puck2_main-processor/ChibiOS//os/hal/ports/STM32/LLD/ext_lld.h"
 390              		.file 43 "../../lib/e-puck2_main-processor/ChibiOS//os/hal/include/gpt.h"
 391              		.file 44 "../../lib/e-puck2_main-processor/ChibiOS//os/hal/ports/STM32/LLD/TIMv1/gpt_lld.h"
 392              		.file 45 "../../lib/e-puck2_main-processor/ChibiOS//os/hal/ports/STM32/LLD/TIMv1/stm32_tim.h"
 393              		.file 46 "../../lib/e-puck2_main-processor/ChibiOS//os/hal/include/i2c.h"
 394              		.file 47 "../../lib/e-puck2_main-processor/ChibiOS//os/hal/ports/STM32/LLD/I2Cv1/i2c_lld.h"
 395              		.file 48 "../../lib/e-puck2_main-processor/ChibiOS//os/hal/include/i2s.h"
 396              		.file 49 "../../lib/e-puck2_main-processor/ChibiOS//os/hal/ports/STM32/LLD/SPIv1/i2s_lld.h"
 397              		.file 50 "../../lib/e-puck2_main-processor/ChibiOS//os/hal/include/pwm.h"
 398              		.file 51 "../../lib/e-puck2_main-processor/ChibiOS//os/hal/ports/STM32/LLD/TIMv1/pwm_lld.h"
 399              		.file 52 "../../lib/e-puck2_main-processor/ChibiOS//os/hal/include/serial.h"
 400              		.file 53 "../../lib/e-puck2_main-processor/ChibiOS//os/hal/ports/STM32/LLD/USARTv1/serial_lld.h"
 401              		.file 54 "../../lib/e-puck2_main-processor/ChibiOS//os/hal/include/sdc.h"
 402              		.file 55 "../../lib/e-puck2_main-processor/ChibiOS//os/hal/ports/STM32/LLD/sdc_lld.h"
 403              		.file 56 "../../lib/e-puck2_main-processor/ChibiOS//os/hal/include/spi.h"
 404              		.file 57 "../../lib/e-puck2_main-processor/ChibiOS//os/hal/ports/STM32/LLD/SPIv1/spi_lld.h"
 405              		.file 58 "../../lib/e-puck2_main-processor/ChibiOS//os/hal/include/usb.h"
 406              		.file 59 "../../lib/e-puck2_main-processor/ChibiOS//os/hal/ports/STM32/LLD/OTGv1/usb_lld.h"
 407              		.file 60 "../../lib/e-puck2_main-processor/ChibiOS//os/hal/ports/STM32/LLD/OTGv1/stm32_otg.h"
 408              		.file 61 "../../lib/e-puck2_main-processor/ChibiOS//os/hal/include/serial_usb.h"
 409              		.file 62 "../../lib/e-puck2_main-processor/src/usbcfg.h"
 410              		.file 63 "../../lib/e-puck2_main-processor/ChibiOS_ext/os/hal/include/../ports/STM32/STM32F4xx/dcm
 411              		.file 64 "c:\\program files\\eclipse_e-puck2\\tools\\gcc-arm-none-eabi-7-2017-q4-major-win32\\arm-
 412              		.file 65 "../../lib/e-puck2_main-processor/src/msgbus/messagebus.h"
 413              		.file 66 "../../lib/e-puck2_main-processor/src/parameter/parameter.h"
 414              		.file 67 "./main.h"
 415              		.file 68 "../../lib/e-puck2_main-processor/src/sensors/mpu9250.h"
 416              		.file 69 "./gravity.h"
 417              		.file 70 "../../lib/e-puck2_main-processor/ChibiOS//os/rt/include/chsys.h"
 418              		.file 71 "../../lib/e-puck2_main-processor/ChibiOS//os/hal/include/hal.h"
 419              		.file 72 "../../lib/e-puck2_main-processor/src/memory_protection.h"
 420              		.file 73 "../../lib/e-puck2_main-processor/src/motors.h"
 421              		.file 74 "../../lib/e-puck2_main-processor/src/sensors/proximity.h"
 422              		.file 75 "../../lib/e-puck2_main-processor/ChibiOS//os/rt/include/chthreads.h"