ARM GAS  C:\Users\CHRIST~2\AppData\Local\Temp\cclV7ZRb.s 			page 1


   1              		.cpu cortex-m4
   2              		.eabi_attribute 27, 1
   3              		.eabi_attribute 28, 1
   4              		.eabi_attribute 20, 1
   5              		.eabi_attribute 21, 1
   6              		.eabi_attribute 23, 3
   7              		.eabi_attribute 24, 1
   8              		.eabi_attribute 25, 1
   9              		.eabi_attribute 26, 1
  10              		.eabi_attribute 30, 2
  11              		.eabi_attribute 34, 1
  12              		.eabi_attribute 18, 4
  13              		.file	"main.c"
  14              		.text
  15              	.Ltext0:
  16              		.cfi_sections	.debug_frame
  17              		.section	.text.chprintf.constprop.0,"ax",%progbits
  18              		.align	1
  19              		.p2align 4,,15
  20              		.syntax unified
  21              		.thumb
  22              		.thumb_func
  23              		.fpu fpv4-sp-d16
  24              		.type	chprintf.constprop.0, %function
  25              	chprintf.constprop.0:
  26              	.LFB264:
  27              		.file 1 "../../lib/e-puck2_main-processor/ChibiOS//os/hal/lib/streams/chprintf.h"
  28              		.loc 1 69 0
  29              		.cfi_startproc
  30              		@ args = 4, pretend = 12, frame = 8
  31              		@ frame_needed = 0, uses_anonymous_args = 1
  32              	.LVL0:
  33 0000 0EB4     		push	{r1, r2, r3}
  34              		.cfi_def_cfa_offset 12
  35              		.cfi_offset 1, -12
  36              		.cfi_offset 2, -8
  37              		.cfi_offset 3, -4
  38 0002 10B5     		push	{r4, lr}
  39              		.cfi_def_cfa_offset 20
  40              		.cfi_offset 4, -20
  41              		.cfi_offset 14, -16
  42 0004 0A4C     		ldr	r4, .L6
  43              		.loc 1 74 0
  44 0006 0B49     		ldr	r1, .L6+4
  45              		.loc 1 69 0
  46 0008 2368     		ldr	r3, [r4]
  47              		.loc 1 74 0
  48 000a 0B48     		ldr	r0, .L6+8
  49              	.LVL1:
  50              		.loc 1 69 0
  51 000c 83B0     		sub	sp, sp, #12
  52              		.cfi_def_cfa_offset 32
  53              		.loc 1 69 0
  54 000e 0193     		str	r3, [sp, #4]
  55              	.LVL2:
  56              		.loc 1 73 0
  57 0010 06AB     		add	r3, sp, #24
ARM GAS  C:\Users\CHRIST~2\AppData\Local\Temp\cclV7ZRb.s 			page 2


  58              		.loc 1 74 0
  59 0012 1A46     		mov	r2, r3
  60              		.loc 1 73 0
  61 0014 0093     		str	r3, [sp]
  62              		.loc 1 74 0
  63 0016 FFF7FEFF 		bl	chvprintf
  64              	.LVL3:
  65              		.loc 1 78 0
  66 001a 019A     		ldr	r2, [sp, #4]
  67 001c 2368     		ldr	r3, [r4]
  68 001e 9A42     		cmp	r2, r3
  69 0020 04D1     		bne	.L5
  70 0022 03B0     		add	sp, sp, #12
  71              		.cfi_remember_state
  72              		.cfi_def_cfa_offset 20
  73              		@ sp needed
  74 0024 BDE81040 		pop	{r4, lr}
  75              		.cfi_restore 14
  76              		.cfi_restore 4
  77              		.cfi_def_cfa_offset 12
  78 0028 03B0     		add	sp, sp, #12
  79              		.cfi_restore 3
  80              		.cfi_restore 2
  81              		.cfi_restore 1
  82              		.cfi_def_cfa_offset 0
  83 002a 7047     		bx	lr
  84              	.L5:
  85              		.cfi_restore_state
  86 002c FFF7FEFF 		bl	__stack_chk_fail
  87              	.LVL4:
  88              	.L7:
  89              		.align	2
  90              	.L6:
  91 0030 00000000 		.word	__stack_chk_guard
  92 0034 00000000 		.word	.LC0
  93 0038 00000000 		.word	SDU1
  94              		.cfi_endproc
  95              	.LFE264:
  96              		.size	chprintf.constprop.0, .-chprintf.constprop.0
  97              		.section	.text.SendUint8ToComputer,"ax",%progbits
  98              		.align	1
  99              		.p2align 4,,15
 100              		.global	SendUint8ToComputer
 101              		.syntax unified
 102              		.thumb
 103              		.thumb_func
 104              		.fpu fpv4-sp-d16
 105              		.type	SendUint8ToComputer, %function
 106              	SendUint8ToComputer:
 107              	.LFB260:
 108              		.file 2 "main.c"
 109              		.loc 2 21 0
 110              		.cfi_startproc
 111              		@ args = 0, pretend = 0, frame = 16
 112              		@ frame_needed = 0, uses_anonymous_args = 0
 113              	.LVL5:
 114 0000 70B5     		push	{r4, r5, r6, lr}
ARM GAS  C:\Users\CHRIST~2\AppData\Local\Temp\cclV7ZRb.s 			page 3


 115              		.cfi_def_cfa_offset 16
 116              		.cfi_offset 4, -16
 117              		.cfi_offset 5, -12
 118              		.cfi_offset 6, -8
 119              		.cfi_offset 14, -4
 120              		.loc 2 22 0
 121 0002 124C     		ldr	r4, .L12
 122              		.loc 2 21 0
 123 0004 124D     		ldr	r5, .L12+4
 124              		.loc 2 22 0
 125 0006 2368     		ldr	r3, [r4]
 126              		.loc 2 21 0
 127 0008 2A68     		ldr	r2, [r5]
 128 000a 84B0     		sub	sp, sp, #16
 129              		.cfi_def_cfa_offset 32
 130              		.loc 2 21 0
 131 000c 0646     		mov	r6, r0
 132 000e ADF80610 		strh	r1, [sp, #6]	@ movhi
 133              		.loc 2 22 0
 134 0012 1B68     		ldr	r3, [r3]
 135 0014 0F49     		ldr	r1, .L12+8
 136              	.LVL6:
 137              		.loc 2 21 0
 138 0016 0392     		str	r2, [sp, #12]
 139              		.loc 2 22 0
 140 0018 2046     		mov	r0, r4
 141              	.LVL7:
 142 001a 0522     		movs	r2, #5
 143 001c 9847     		blx	r3
 144              	.LVL8:
 145              		.loc 2 23 0
 146 001e 2368     		ldr	r3, [r4]
 147 0020 0222     		movs	r2, #2
 148 0022 1B68     		ldr	r3, [r3]
 149 0024 0DF10601 		add	r1, sp, #6
 150 0028 2046     		mov	r0, r4
 151 002a 9847     		blx	r3
 152              	.LVL9:
 153              		.loc 2 24 0
 154 002c 2368     		ldr	r3, [r4]
 155 002e BDF80620 		ldrh	r2, [sp, #6]
 156 0032 1B68     		ldr	r3, [r3]
 157 0034 3146     		mov	r1, r6
 158 0036 2046     		mov	r0, r4
 159 0038 9847     		blx	r3
 160              	.LVL10:
 161              		.loc 2 25 0
 162 003a 039A     		ldr	r2, [sp, #12]
 163 003c 2B68     		ldr	r3, [r5]
 164 003e 9A42     		cmp	r2, r3
 165 0040 01D1     		bne	.L11
 166 0042 04B0     		add	sp, sp, #16
 167              		.cfi_remember_state
 168              		.cfi_def_cfa_offset 16
 169              		@ sp needed
 170 0044 70BD     		pop	{r4, r5, r6, pc}
 171              	.LVL11:
ARM GAS  C:\Users\CHRIST~2\AppData\Local\Temp\cclV7ZRb.s 			page 4


 172              	.L11:
 173              		.cfi_restore_state
 174 0046 FFF7FEFF 		bl	__stack_chk_fail
 175              	.LVL12:
 176              	.L13:
 177 004a 00BF     		.align	2
 178              	.L12:
 179 004c 00000000 		.word	SD3
 180 0050 00000000 		.word	__stack_chk_guard
 181 0054 00000000 		.word	.LC1
 182              		.cfi_endproc
 183              	.LFE260:
 184              		.size	SendUint8ToComputer, .-SendUint8ToComputer
 185              		.section	.text.startup.main,"ax",%progbits
 186              		.align	1
 187              		.p2align 4,,15
 188              		.global	main
 189              		.syntax unified
 190              		.thumb
 191              		.thumb_func
 192              		.fpu fpv4-sp-d16
 193              		.type	main, %function
 194              	main:
 195              	.LFB262:
 196              		.loc 2 40 0
 197              		.cfi_startproc
 198              		@ args = 0, pretend = 0, frame = 8
 199              		@ frame_needed = 0, uses_anonymous_args = 0
 200 0000 70B5     		push	{r4, r5, r6, lr}
 201              		.cfi_def_cfa_offset 16
 202              		.cfi_offset 4, -16
 203              		.cfi_offset 5, -12
 204              		.cfi_offset 6, -8
 205              		.cfi_offset 14, -4
 206 0002 154B     		ldr	r3, .L20
 207              		.loc 2 70 0
 208 0004 154E     		ldr	r6, .L20+4
 209              		.loc 2 40 0
 210 0006 1B68     		ldr	r3, [r3]
 211              		.loc 2 70 0
 212 0008 154D     		ldr	r5, .L20+8
 213              		.loc 2 40 0
 214 000a 82B0     		sub	sp, sp, #8
 215              		.cfi_def_cfa_offset 24
 216              		.loc 2 62 0
 217 000c 0024     		movs	r4, #0
 218              		.loc 2 40 0
 219 000e 0193     		str	r3, [sp, #4]
 220              		.loc 2 42 0
 221 0010 FFF7FEFF 		bl	halInit
 222              	.LVL13:
 223              		.loc 2 43 0
 224 0014 FFF7FEFF 		bl	chSysInit
 225              	.LVL14:
 226              		.loc 2 44 0
 227 0018 FFF7FEFF 		bl	mpu_init
 228              	.LVL15:
ARM GAS  C:\Users\CHRIST~2\AppData\Local\Temp\cclV7ZRb.s 			page 5


 229              	.LBB4:
 230              	.LBB5:
 231              		.loc 2 36 0
 232 001c 1149     		ldr	r1, .L20+12
 233 001e 1248     		ldr	r0, .L20+16
 234 0020 FFF7FEFF 		bl	sdStart
 235              	.LVL16:
 236              	.LBE5:
 237              	.LBE4:
 238              		.loc 2 49 0
 239 0024 FFF7FEFF 		bl	usb_start
 240              	.LVL17:
 241              		.loc 2 51 0
 242 0028 FFF7FEFF 		bl	dcmi_start
 243              	.LVL18:
 244              		.loc 2 52 0
 245 002c FFF7FEFF 		bl	po8030_start
 246              	.LVL19:
 247              		.loc 2 54 0
 248 0030 FFF7FEFF 		bl	motors_init
 249              	.LVL20:
 250              		.loc 2 60 0
 251 0034 FFF7FEFF 		bl	proximity_start
 252              	.LVL21:
 253              	.L15:
 254              		.loc 2 73 0
 255 0038 0134     		adds	r4, r4, #1
 256              	.LVL22:
 257 003a E4B2     		uxtb	r4, r4
 258              	.LVL23:
 259              		.loc 2 75 0
 260 003c 4FF47A70 		mov	r0, #1000
 261 0040 FFF7FEFF 		bl	chThdSleep
 262              	.LVL24:
 263              		.loc 2 69 0
 264 0044 0A2C     		cmp	r4, #10
 265 0046 F7D1     		bne	.L15
 266              		.loc 2 70 0
 267 0048 0022     		movs	r2, #0
 268 004a 3146     		mov	r1, r6
 269 004c 2846     		mov	r0, r5
 270              		.loc 2 71 0
 271 004e 1446     		mov	r4, r2
 272              	.LVL25:
 273              		.loc 2 70 0
 274 0050 FFF7FEFF 		bl	chprintf.constprop.0
 275              	.LVL26:
 276 0054 F0E7     		b	.L15
 277              	.L21:
 278 0056 00BF     		.align	2
 279              	.L20:
 280 0058 00000000 		.word	__stack_chk_guard
 281 005c 00000000 		.word	.LC0
 282 0060 00000000 		.word	SDU1
 283 0064 00000000 		.word	.LANCHOR0
 284 0068 00000000 		.word	SD3
 285              		.cfi_endproc
ARM GAS  C:\Users\CHRIST~2\AppData\Local\Temp\cclV7ZRb.s 			page 6


 286              	.LFE262:
 287              		.size	main, .-main
 288              		.section	.text.__stack_chk_fail,"ax",%progbits
 289              		.align	1
 290              		.p2align 4,,15
 291              		.global	__stack_chk_fail
 292              		.syntax unified
 293              		.thumb
 294              		.thumb_func
 295              		.fpu fpv4-sp-d16
 296              		.type	__stack_chk_fail, %function
 297              	__stack_chk_fail:
 298              	.LFB263:
 299              		.loc 2 83 0
 300              		.cfi_startproc
 301              		@ args = 0, pretend = 0, frame = 8
 302              		@ frame_needed = 0, uses_anonymous_args = 0
 303 0000 00B5     		push	{lr}
 304              		.cfi_def_cfa_offset 4
 305              		.cfi_offset 14, -4
 306 0002 084B     		ldr	r3, .L27
 307 0004 83B0     		sub	sp, sp, #12
 308              		.cfi_def_cfa_offset 16
 309              		.loc 2 83 0
 310 0006 1A68     		ldr	r2, [r3]
 311 0008 0192     		str	r2, [sp, #4]
 312              		.loc 2 84 0
 313 000a 019A     		ldr	r2, [sp, #4]
 314 000c 1B68     		ldr	r3, [r3]
 315 000e 9A42     		cmp	r2, r3
 316 0010 05D1     		bne	.L26
 317 0012 0548     		ldr	r0, .L27+4
 318              		.loc 2 85 0
 319 0014 03B0     		add	sp, sp, #12
 320              		.cfi_remember_state
 321              		.cfi_def_cfa_offset 4
 322              		@ sp needed
 323 0016 5DF804EB 		ldr	lr, [sp], #4
 324              		.cfi_restore 14
 325              		.cfi_def_cfa_offset 0
 326              		.loc 2 84 0
 327 001a FFF7FEBF 		b	chSysHalt
 328              	.LVL27:
 329              	.L26:
 330              		.cfi_restore_state
 331 001e FFF7FEFF 		bl	__stack_chk_fail
 332              	.LVL28:
 333              	.L28:
 334 0022 00BF     		.align	2
 335              	.L27:
 336 0024 00000000 		.word	__stack_chk_guard
 337 0028 00000000 		.word	.LC2
 338              		.cfi_endproc
 339              	.LFE263:
 340              		.size	__stack_chk_fail, .-__stack_chk_fail
 341              		.global	__stack_chk_guard
 342              		.section	.data.__stack_chk_guard,"aw",%progbits
ARM GAS  C:\Users\CHRIST~2\AppData\Local\Temp\cclV7ZRb.s 			page 7


 343              		.align	2
 344              		.type	__stack_chk_guard, %object
 345              		.size	__stack_chk_guard, 4
 346              	__stack_chk_guard:
 347 0000 96E3DEE2 		.word	-488709226
 348              		.section	.data.ser_cfg.12813,"aw",%progbits
 349              		.align	2
 350              		.set	.LANCHOR0,. + 0
 351              		.type	ser_cfg.12813, %object
 352              		.size	ser_cfg.12813, 12
 353              	ser_cfg.12813:
 354 0000 00C20100 		.word	115200
 355 0004 0000     		.short	0
 356 0006 0000     		.short	0
 357 0008 0000     		.short	0
 358 000a 0000     		.space	2
 359              		.section	.rodata.SendUint8ToComputer.str1.4,"aMS",%progbits,1
 360              		.align	2
 361              	.LC1:
 362 0000 53544152 		.ascii	"START\000"
 362      5400
 363              		.section	.rodata.__stack_chk_fail.str1.4,"aMS",%progbits,1
 364              		.align	2
 365              	.LC2:
 366 0000 53746163 		.ascii	"Stack smashing detected\000"
 366      6B20736D 
 366      61736869 
 366      6E672064 
 366      65746563 
 367              		.section	.rodata.chprintf.constprop.0.str1.4,"aMS",%progbits,1
 368              		.align	2
 369              	.LC0:
 370 0000 64697374 		.ascii	"distance=%d\012\000"
 370      616E6365 
 370      3D25640A 
 370      00
 371              		.text
 372              	.Letext0:
 373              		.file 3 "c:\\program files\\eclipse_e-puck2\\tools\\gcc-arm-none-eabi-7-2017-q4-major-win32\\arm-n
 374              		.file 4 "c:\\program files\\eclipse_e-puck2\\tools\\gcc-arm-none-eabi-7-2017-q4-major-win32\\lib\\
 375              		.file 5 "c:\\program files\\eclipse_e-puck2\\tools\\gcc-arm-none-eabi-7-2017-q4-major-win32\\lib\\
 376              		.file 6 "c:\\program files\\eclipse_e-puck2\\tools\\gcc-arm-none-eabi-7-2017-q4-major-win32\\arm-n
 377              		.file 7 "c:\\program files\\eclipse_e-puck2\\tools\\gcc-arm-none-eabi-7-2017-q4-major-win32\\arm-n
 378              		.file 8 "c:\\program files\\eclipse_e-puck2\\tools\\gcc-arm-none-eabi-7-2017-q4-major-win32\\arm-n
 379              		.file 9 "c:\\program files\\eclipse_e-puck2\\tools\\gcc-arm-none-eabi-7-2017-q4-major-win32\\arm-n
 380              		.file 10 "<built-in>"
 381              		.file 11 "c:\\program files\\eclipse_e-puck2\\tools\\gcc-arm-none-eabi-7-2017-q4-major-win32\\arm-
 382              		.file 12 "c:\\program files\\eclipse_e-puck2\\tools\\gcc-arm-none-eabi-7-2017-q4-major-win32\\arm-
 383              		.file 13 "c:\\program files\\eclipse_e-puck2\\tools\\gcc-arm-none-eabi-7-2017-q4-major-win32\\arm-
 384              		.file 14 "../../lib/e-puck2_main-processor/ChibiOS//os/rt/ports/ARMCMx/compilers/GCC/chtypes.h"
 385              		.file 15 "../../lib/e-puck2_main-processor/ChibiOS//os/rt/include/chsystypes.h"
 386              		.file 16 "../../lib/e-puck2_main-processor/ChibiOS//os/rt/include/chschd.h"
 387              		.file 17 "../../lib/e-puck2_main-processor/ChibiOS//os/ext/CMSIS/include/core_cm4.h"
 388              		.file 18 "../../lib/e-puck2_main-processor/ChibiOS//os/ext/CMSIS/ST/system_stm32f4xx.h"
 389              		.file 19 "../../lib/e-puck2_main-processor/ChibiOS//os/ext/CMSIS/ST/stm32f407xx.h"
 390              		.file 20 "../../lib/e-puck2_main-processor/ChibiOS//os/rt/ports/ARMCMx/chcore.h"
 391              		.file 21 "../../lib/e-puck2_main-processor/ChibiOS//os/rt/ports/ARMCMx/chcore_v7m.h"
ARM GAS  C:\Users\CHRIST~2\AppData\Local\Temp\cclV7ZRb.s 			page 8


 392              		.file 22 "../../lib/e-puck2_main-processor/ChibiOS//os/rt/include/chdebug.h"
 393              		.file 23 "../../lib/e-puck2_main-processor/ChibiOS//os/rt/include/chtm.h"
 394              		.file 24 "../../lib/e-puck2_main-processor/ChibiOS//os/rt/include/chstats.h"
 395              		.file 25 "../../lib/e-puck2_main-processor/ChibiOS//os/rt/include/chsem.h"
 396              		.file 26 "../../lib/e-puck2_main-processor/ChibiOS//os/rt/include/chmtx.h"
 397              		.file 27 "../../lib/e-puck2_main-processor/ChibiOS//os/rt/include/chregistry.h"
 398              		.file 28 "../../lib/e-puck2_main-processor/ChibiOS//os/rt/include/chevents.h"
 399              		.file 29 "../../lib/e-puck2_main-processor/ChibiOS//os/rt/include/chqueues.h"
 400              		.file 30 "../../lib/e-puck2_main-processor/ChibiOS//os/rt/include/chstreams.h"
 401              		.file 31 "../../lib/e-puck2_main-processor/ChibiOS//os/hal/ports/STM32/STM32F4xx/stm32_dma.h"
 402              		.file 32 "../../lib/e-puck2_main-processor/ChibiOS//os/hal/include/hal_ioblock.h"
 403              		.file 33 "../../lib/e-puck2_main-processor/ChibiOS//os/hal/ports/STM32/LLD/GPIOv2/pal_lld.h"
 404              		.file 34 "../../lib/e-puck2_main-processor/ChibiOS//os/hal/include/adc.h"
 405              		.file 35 "../../lib/e-puck2_main-processor/ChibiOS//os/hal/ports/STM32/STM32F4xx/adc_lld.h"
 406              		.file 36 "../../lib/e-puck2_main-processor/ChibiOS//os/hal/include/can.h"
 407              		.file 37 "../../lib/e-puck2_main-processor/ChibiOS//os/hal/ports/STM32/LLD/can_lld.h"
 408              		.file 38 "../../lib/e-puck2_main-processor/ChibiOS//os/hal/include/dac.h"
 409              		.file 39 "../../lib/e-puck2_main-processor/ChibiOS//os/hal/ports/STM32/LLD/DACv1/dac_lld.h"
 410              		.file 40 "../../lib/e-puck2_main-processor/ChibiOS//os/hal/include/ext.h"
 411              		.file 41 "../../lib/e-puck2_main-processor/ChibiOS//os/hal/ports/STM32/LLD/ext_lld.h"
 412              		.file 42 "../../lib/e-puck2_main-processor/ChibiOS//os/hal/include/gpt.h"
 413              		.file 43 "../../lib/e-puck2_main-processor/ChibiOS//os/hal/ports/STM32/LLD/TIMv1/gpt_lld.h"
 414              		.file 44 "../../lib/e-puck2_main-processor/ChibiOS//os/hal/ports/STM32/LLD/TIMv1/stm32_tim.h"
 415              		.file 45 "../../lib/e-puck2_main-processor/ChibiOS//os/hal/include/i2c.h"
 416              		.file 46 "../../lib/e-puck2_main-processor/ChibiOS//os/hal/ports/STM32/LLD/I2Cv1/i2c_lld.h"
 417              		.file 47 "../../lib/e-puck2_main-processor/ChibiOS//os/hal/include/i2s.h"
 418              		.file 48 "../../lib/e-puck2_main-processor/ChibiOS//os/hal/ports/STM32/LLD/SPIv1/i2s_lld.h"
 419              		.file 49 "../../lib/e-puck2_main-processor/ChibiOS//os/hal/include/pwm.h"
 420              		.file 50 "../../lib/e-puck2_main-processor/ChibiOS//os/hal/ports/STM32/LLD/TIMv1/pwm_lld.h"
 421              		.file 51 "../../lib/e-puck2_main-processor/ChibiOS//os/hal/include/serial.h"
 422              		.file 52 "../../lib/e-puck2_main-processor/ChibiOS//os/hal/ports/STM32/LLD/USARTv1/serial_lld.h"
 423              		.file 53 "../../lib/e-puck2_main-processor/ChibiOS//os/hal/include/sdc.h"
 424              		.file 54 "../../lib/e-puck2_main-processor/ChibiOS//os/hal/ports/STM32/LLD/sdc_lld.h"
 425              		.file 55 "../../lib/e-puck2_main-processor/ChibiOS//os/hal/include/spi.h"
 426              		.file 56 "../../lib/e-puck2_main-processor/ChibiOS//os/hal/ports/STM32/LLD/SPIv1/spi_lld.h"
 427              		.file 57 "../../lib/e-puck2_main-processor/ChibiOS//os/hal/include/usb.h"
 428              		.file 58 "../../lib/e-puck2_main-processor/ChibiOS//os/hal/ports/STM32/LLD/OTGv1/usb_lld.h"
 429              		.file 59 "../../lib/e-puck2_main-processor/ChibiOS//os/hal/ports/STM32/LLD/OTGv1/stm32_otg.h"
 430              		.file 60 "../../lib/e-puck2_main-processor/ChibiOS//os/hal/include/serial_usb.h"
 431              		.file 61 "../../lib/e-puck2_main-processor/src/usbcfg.h"
 432              		.file 62 "../../lib/e-puck2_main-processor/ChibiOS_ext/os/hal/include/../ports/STM32/STM32F4xx/dcm
 433              		.file 63 "c:\\program files\\eclipse_e-puck2\\tools\\gcc-arm-none-eabi-7-2017-q4-major-win32\\arm-
 434              		.file 64 "../../lib/e-puck2_main-processor/src/msgbus/messagebus.h"
 435              		.file 65 "../../lib/e-puck2_main-processor/src/parameter/parameter.h"
 436              		.file 66 "./main.h"
 437              		.file 67 "../../lib/e-puck2_main-processor/ChibiOS//os/rt/include/chsys.h"
 438              		.file 68 "../../lib/e-puck2_main-processor/ChibiOS//os/hal/include/hal.h"
 439              		.file 69 "../../lib/e-puck2_main-processor/src/memory_protection.h"
 440              		.file 70 "../../lib/e-puck2_main-processor/src/camera/dcmi_camera.h"
 441              		.file 71 "../../lib/e-puck2_main-processor/src/camera/po8030.h"
 442              		.file 72 "../../lib/e-puck2_main-processor/src/motors.h"
 443              		.file 73 "../../lib/e-puck2_main-processor/src/sensors/proximity.h"
 444              		.file 74 "../../lib/e-puck2_main-processor/ChibiOS//os/rt/include/chthreads.h"